target datalayout = "e-m:e-p270:32:32-p271:32:32-p272:64:64-i64:64-i128:128-f80:128-n8:16:32:64-S128"
target triple = "x86_64-pc-linux-gnu"

%struct._dcerpc_info = type { ptr, i32, i64, i8, i8, i8, i32, i32, i32, i32, i32, i32, i32, i32, ptr, ptr, ptr, ptr, %struct.anon }
%struct.anon = type { i8, ptr, ptr, ptr, i8 }

@hf_netlogon_level = internal global i32 0, align 4
@hf_netlogon_neg_flags = internal global i32 0, align 4
@ett_authenticate_flags = internal global i32 0, align 4
@ett_CAPABILITIES = internal global i32 0, align 4
@.str.1251 = private unnamed_addr constant [13 x i8] c"Capabilities\00", align 1
@.str.1252 = private unnamed_addr constant [24 x i8] c"NegotiatedFlags: 0x%08x\00", align 1
@.str.1253 = private unnamed_addr constant [19 x i8] c"ServerCapabilities\00", align 1
@.str.1254 = private unnamed_addr constant [21 x i8] c": ServerCapabilities\00", align 1
@.str.1255 = private unnamed_addr constant [23 x i8] c"RequestedFlags: 0x%08x\00", align 1
@.str.1256 = private unnamed_addr constant [15 x i8] c"RequestedFlags\00", align 1
@.str.1257 = private unnamed_addr constant [17 x i8] c": RequestedFlags\00", align 1

; Function Attrs: null_pointer_is_valid sspstrong uwtable
define internal ptr @netlogon_dissect_neg_options(ptr noundef %0, ptr noundef %1, i32 noundef %2, i32 noundef %3) #0 {
  %5 = alloca ptr, align 8
  %6 = alloca ptr, align 8
  %7 = alloca i32, align 4
  %8 = alloca i32, align 4
  store ptr %0, ptr %5, align 8
  store ptr %1, ptr %6, align 8
  store i32 %2, ptr %7, align 4
  store i32 %3, ptr %8, align 4
  %9 = load ptr, ptr %6, align 8
  %10 = load ptr, ptr %5, align 8
  %11 = load i32, ptr %8, align 4
  %12 = load i32, ptr @hf_netlogon_neg_flags, align 4
  %13 = load i32, ptr @ett_authenticate_flags, align 4
  %14 = load i32, ptr %7, align 4
  %15 = zext i32 %14 to i64
  %16 = call ptr @proto_tree_add_bitmask_value_with_flags(ptr noundef %9, ptr noundef %10, i32 noundef %11, i32 noundef %12, i32 noundef %13, ptr noundef @netlogon_dissect_neg_options.hf_flags, i64 noundef %15, i32 noundef 1)
  ret ptr %16
}

; Function Attrs: null_pointer_is_valid sspstrong uwtable
define internal i32 @netlogon_dissect_Capabilities(ptr noundef %0, i32 noundef %1, ptr noundef %2, ptr noundef %3, ptr noundef %4, ptr noundef %5) #0 {
  %7 = alloca ptr, align 8
  %8 = alloca i32, align 4
  %9 = alloca ptr, align 8
  %10 = alloca ptr, align 8
  %11 = alloca ptr, align 8
  %12 = alloca ptr, align 8
  %13 = alloca ptr, align 8
  %14 = alloca ptr, align 8
  %15 = alloca ptr, align 8
  %16 = alloca ptr, align 8
  %17 = alloca i32, align 4
  %18 = alloca i32, align 4
  %19 = alloca i32, align 4
  %20 = alloca i32, align 4
  store ptr %0, ptr %7, align 8
  store i32 %1, ptr %8, align 4
  store ptr %2, ptr %9, align 8
  store ptr %3, ptr %10, align 8
  store ptr %4, ptr %11, align 8
  store ptr %5, ptr %12, align 8
  call void @llvm.lifetime.start.p0(i64 8, ptr %13) #15
  store ptr null, ptr %13, align 8
  call void @llvm.lifetime.start.p0(i64 8, ptr %14) #15
  store ptr null, ptr %14, align 8
  call void @llvm.lifetime.start.p0(i64 8, ptr %15) #15
  store ptr null, ptr %15, align 8
  call void @llvm.lifetime.start.p0(i64 8, ptr %16) #15
  store ptr null, ptr %16, align 8
  call void @llvm.lifetime.start.p0(i64 4, ptr %17) #15
  %21 = load i32, ptr %8, align 4
  store i32 %21, ptr %17, align 4
  call void @llvm.lifetime.start.p0(i64 4, ptr %18) #15
  store i32 0, ptr %18, align 4
  %22 = load ptr, ptr %10, align 8
  %23 = icmp ne ptr %22, null
  br i1 %23, label %24, label %32

24:                                               ; preds = %6
  %25 = load ptr, ptr %10, align 8
  %26 = call ptr @proto_tree_get_parent(ptr noundef %25)
  store ptr %26, ptr %15, align 8
  %27 = load ptr, ptr %10, align 8
  %28 = load ptr, ptr %7, align 8
  %29 = load i32, ptr %8, align 4
  %30 = load i32, ptr @ett_CAPABILITIES, align 4
  %31 = call ptr @proto_tree_add_subtree(ptr noundef %27, ptr noundef %28, i32 noundef %29, i32 noundef 0, i32 noundef %30, ptr noundef %13, ptr noundef @.str.1251)
  store ptr %31, ptr %14, align 8
  br label %32

32:                                               ; preds = %24, %6
  %33 = load ptr, ptr %7, align 8
  %34 = load i32, ptr %8, align 4
  %35 = load ptr, ptr %9, align 8
  %36 = load ptr, ptr %14, align 8
  %37 = load ptr, ptr %11, align 8
  %38 = load ptr, ptr %12, align 8
  %39 = load i32, ptr @hf_netlogon_level, align 4
  %40 = call i32 @dissect_ndr_uint32(ptr noundef %33, i32 noundef %34, ptr noundef %35, ptr noundef %36, ptr noundef %37, ptr noundef %38, i32 noundef %39, ptr noundef %18)
  store i32 %40, ptr %8, align 4
  %41 = load ptr, ptr %11, align 8
  %42 = getelementptr inbounds nuw %struct._dcerpc_info, ptr %41, i32 0, i32 4
  %43 = load i8, ptr %42, align 1, !range !6, !noundef !7
  %44 = trunc i8 %43 to i1
  br i1 %44, label %54, label %45

45:                                               ; preds = %32
  %46 = load i32, ptr %8, align 4
  %47 = and i32 %46, 3
  %48 = icmp ne i32 %47, 0
  br i1 %48, label %49, label %53

49:                                               ; preds = %45
  %50 = load i32, ptr %8, align 4
  %51 = and i32 %50, -4
  %52 = add i32 %51, 4
  store i32 %52, ptr %8, align 4
  br label %53

53:                                               ; preds = %49, %45
  br label %54

54:                                               ; preds = %53, %32
  %55 = load i32, ptr %18, align 4
  switch i32 %55, label %94 [
    i32 1, label %56
    i32 2, label %75
  ]

56:                                               ; preds = %54
  call void @llvm.lifetime.start.p0(i64 4, ptr %19) #15
  %57 = load ptr, ptr %7, align 8
  %58 = load i32, ptr %8, align 4
  %59 = load ptr, ptr %9, align 8
  %60 = load ptr, ptr %14, align 8
  %61 = load ptr, ptr %11, align 8
  %62 = load ptr, ptr %12, align 8
  %63 = call i32 @dissect_ndr_uint32(ptr noundef %57, i32 noundef %58, ptr noundef %59, ptr noundef %60, ptr noundef %61, ptr noundef %62, i32 noundef -1, ptr noundef %19)
  %64 = load ptr, ptr %7, align 8
  %65 = load ptr, ptr %14, align 8
  %66 = load i32, ptr %19, align 4
  %67 = load i32, ptr %8, align 4
  %68 = call ptr @netlogon_dissect_neg_options(ptr noundef %64, ptr noundef %65, i32 noundef %66, i32 noundef %67)
  store ptr %68, ptr %16, align 8
  %69 = load ptr, ptr %16, align 8
  %70 = load i32, ptr %19, align 4
  call void (ptr, ptr, ...) @proto_item_set_text(ptr noundef %69, ptr noundef @.str.1252, i32 noundef %70)
  %71 = load ptr, ptr %13, align 8
  call void (ptr, ptr, ...) @proto_item_set_text(ptr noundef %71, ptr noundef @.str.1253)
  %72 = load ptr, ptr %15, align 8
  call void (ptr, ptr, ...) @proto_item_append_text(ptr noundef %72, ptr noundef @.str.1254)
  %73 = load i32, ptr %8, align 4
  %74 = add i32 %73, 4
  store i32 %74, ptr %8, align 4
  call void @llvm.lifetime.end.p0(i64 4, ptr %19) #15
  br label %94

75:                                               ; preds = %54
  call void @llvm.lifetime.start.p0(i64 4, ptr %20) #15
  %76 = load ptr, ptr %7, align 8
  %77 = load i32, ptr %8, align 4
  %78 = load ptr, ptr %9, align 8
  %79 = load ptr, ptr %14, align 8
  %80 = load ptr, ptr %11, align 8
  %81 = load ptr, ptr %12, align 8
  %82 = call i32 @dissect_ndr_uint32(ptr noundef %76, i32 noundef %77, ptr noundef %78, ptr noundef %79, ptr noundef %80, ptr noundef %81, i32 noundef -1, ptr noundef %20)
  %83 = load ptr, ptr %7, align 8
  %84 = load ptr, ptr %14, align 8
  %85 = load i32, ptr %20, align 4
  %86 = load i32, ptr %8, align 4
  %87 = call ptr @netlogon_dissect_neg_options(ptr noundef %83, ptr noundef %84, i32 noundef %85, i32 noundef %86)
  store ptr %87, ptr %16, align 8
  %88 = load ptr, ptr %16, align 8
  %89 = load i32, ptr %20, align 4
  call void (ptr, ptr, ...) @proto_item_set_text(ptr noundef %88, ptr noundef @.str.1255, i32 noundef %89)
  %90 = load ptr, ptr %13, align 8
  call void (ptr, ptr, ...) @proto_item_set_text(ptr noundef %90, ptr noundef @.str.1256)
  %91 = load ptr, ptr %15, align 8
  call void (ptr, ptr, ...) @proto_item_append_text(ptr noundef %91, ptr noundef @.str.1257)
  %92 = load i32, ptr %8, align 4
  %93 = add i32 %92, 4
  store i32 %93, ptr %8, align 4
  call void @llvm.lifetime.end.p0(i64 4, ptr %20) #15
  br label %94

94:                                               ; preds = %54, %75, %56
  %95 = load ptr, ptr %13, align 8
  %96 = load i32, ptr %8, align 4
  %97 = load i32, ptr %17, align 4
  %98 = sub i32 %96, %97
  call void @proto_item_set_len(ptr noundef %95, i32 noundef %98)
  %99 = load i32, ptr %8, align 4
  call void @llvm.lifetime.end.p0(i64 4, ptr %18) #15
  call void @llvm.lifetime.end.p0(i64 4, ptr %17) #15
  call void @llvm.lifetime.end.p0(i64 8, ptr %16) #15
  call void @llvm.lifetime.end.p0(i64 8, ptr %15) #15
  call void @llvm.lifetime.end.p0(i64 8, ptr %14) #15
  call void @llvm.lifetime.end.p0(i64 8, ptr %13) #15
  ret i32 %99
}