; Function Attrs: null_pointer_is_valid sspstrong uwtable
define internal i32 @netlogon_dissect_Capabilities(ptr noundef %0, i32 noundef %1, ptr noundef %2, ptr noundef %3, ptr noundef %4, ptr noundef %5) #0 {
  %7 = alloca ptr, align 8
  %8 = alloca i32, align 4
  %9 = alloca i32, align 4
  %10 = alloca i32, align 4
  call void @llvm.lifetime.start.p0(i64 8, ptr nonnull %7) #15
  store ptr null, ptr %7, align 8
  call void @llvm.lifetime.start.p0(i64 4, ptr nonnull %8) #15
  store i32 0, ptr %8, align 4
  %.not = icmp eq ptr %3, null
  br i1 %.not, label %15, label %11

11:                                               ; preds = %6
  %12 = tail call ptr @proto_tree_get_parent(ptr noundef nonnull %3)
  %13 = load i32, ptr @ett_CAPABILITIES, align 4
  %14 = call ptr @proto_tree_add_subtree(ptr noundef nonnull %3, ptr noundef %0, i32 noundef %1, i32 noundef 0, i32 noundef %13, ptr noundef nonnull %7, ptr noundef nonnull @.str.1251)
  br label %15

15:                                               ; preds = %11, %6
  %.042 = phi ptr [ %14, %11 ], [ null, %6 ]
  %.041 = phi ptr [ %12, %11 ], [ null, %6 ]
  %16 = load i32, ptr @hf_netlogon_level, align 4
  %17 = call i32 @dissect_ndr_uint32(ptr noundef %0, i32 noundef %1, ptr noundef %2, ptr noundef %.042, ptr noundef %4, ptr noundef %5, i32 noundef %16, ptr noundef nonnull %8)
  %18 = getelementptr inbounds nuw i8, ptr %4, i64 25
  %19 = load i8, ptr %18, align 1, !range !6, !noundef !7
  %20 = trunc nuw i8 %19 to i1
  %21 = and i32 %17, 3
  %.not44 = icmp eq i32 %21, 0
  %or.cond = select i1 %20, i1 true, i1 %.not44
  %22 = and i32 %17, -4
  %23 = add i32 %22, 4
  %.0 = select i1 %or.cond, i32 %17, i32 %23
  %24 = load i32, ptr %8, align 4
  switch i32 %24, label %45 [
    i32 1, label %25
    i32 2, label %35
  ]

25:                                               ; preds = %15
  call void @llvm.lifetime.start.p0(i64 4, ptr nonnull %9) #15
  %26 = call i32 @dissect_ndr_uint32(ptr noundef %0, i32 noundef %.0, ptr noundef %2, ptr noundef %.042, ptr noundef %4, ptr noundef %5, i32 noundef -1, ptr noundef nonnull %9)
  %27 = load i32, ptr %9, align 4
  %28 = load i32, ptr @hf_netlogon_neg_flags, align 4
  %29 = load i32, ptr @ett_authenticate_flags, align 4
  %30 = zext i32 %27 to i64
  %31 = call ptr @proto_tree_add_bitmask_value_with_flags(ptr noundef %.042, ptr noundef %0, i32 noundef %.0, i32 noundef %28, i32 noundef %29, ptr noundef nonnull @netlogon_dissect_neg_options.hf_flags, i64 noundef %30, i32 noundef 1)
  %32 = load i32, ptr %9, align 4
  call void (ptr, ptr, ...) @proto_item_set_text(ptr noundef %31, ptr noundef nonnull @.str.1252, i32 noundef %32)
  %33 = load ptr, ptr %7, align 8
  call void (ptr, ptr, ...) @proto_item_set_text(ptr noundef %33, ptr noundef nonnull @.str.1253)
  call void (ptr, ptr, ...) @proto_item_append_text(ptr noundef %.041, ptr noundef nonnull @.str.1254)
  %34 = add i32 %.0, 4
  call void @llvm.lifetime.end.p0(i64 4, ptr nonnull %9) #15
  br label %45

35:                                               ; preds = %15
  call void @llvm.lifetime.start.p0(i64 4, ptr nonnull %10) #15
  %36 = call i32 @dissect_ndr_uint32(ptr noundef %0, i32 noundef %.0, ptr noundef %2, ptr noundef %.042, ptr noundef %4, ptr noundef %5, i32 noundef -1, ptr noundef nonnull %10)
  %37 = load i32, ptr %10, align 4
  %38 = load i32, ptr @hf_netlogon_neg_flags, align 4
  %39 = load i32, ptr @ett_authenticate_flags, align 4
  %40 = zext i32 %37 to i64
  %41 = call ptr @proto_tree_add_bitmask_value_with_flags(ptr noundef %.042, ptr noundef %0, i32 noundef %.0, i32 noundef %38, i32 noundef %39, ptr noundef nonnull @netlogon_dissect_neg_options.hf_flags, i64 noundef %40, i32 noundef 1)
  %42 = load i32, ptr %10, align 4
  call void (ptr, ptr, ...) @proto_item_set_text(ptr noundef %41, ptr noundef nonnull @.str.1255, i32 noundef %42)
  %43 = load ptr, ptr %7, align 8
  call void (ptr, ptr, ...) @proto_item_set_text(ptr noundef %43, ptr noundef nonnull @.str.1256)
  call void (ptr, ptr, ...) @proto_item_append_text(ptr noundef %.041, ptr noundef nonnull @.str.1257)
  %44 = add i32 %.0, 4
  call void @llvm.lifetime.end.p0(i64 4, ptr nonnull %10) #15
  br label %45

45:                                               ; preds = %35, %25, %15
  %.1 = phi i32 [ %.0, %15 ], [ %44, %35 ], [ %34, %25 ]
  %46 = load ptr, ptr %7, align 8
  %47 = sub i32 %.1, %1
  call void @proto_item_set_len(ptr noundef %46, i32 noundef %47)
  call void @llvm.lifetime.end.p0(i64 4, ptr nonnull %8) #15
  call void @llvm.lifetime.end.p0(i64 8, ptr nonnull %7) #15
  ret i32 %.1
}